target datalayout = "e-m:e-p270:32:32-p271:32:32-p272:64:64-i64:64-i128:128-f80:128-n8:16:32:64-S128"
target triple = "x86_64-pc-linux-gnu"

%"struct.Luau::BytecodeBuilder::TableShape" = type { [32 x i32], i32 }

; Function Attrs: mustprogress nounwind uwtable
define dso_local noundef zeroext i1 @_ZNK4Luau15BytecodeBuilder10TableShapeeqERKS1_(ptr noundef nonnull align 4 dereferenceable(132) %0, ptr noundef nonnull align 4 dereferenceable(132) %1) #0 align 2 {
  %3 = alloca ptr, align 8
  %4 = alloca ptr, align 8
  store ptr %0, ptr %3, align 8, !tbaa !14
  store ptr %1, ptr %4, align 8, !tbaa !14
  %5 = load ptr, ptr %3, align 8
  %6 = getelementptr inbounds nuw %"struct.Luau::BytecodeBuilder::TableShape", ptr %5, i32 0, i32 1
  %7 = load i32, ptr %6, align 4, !tbaa !16
  %8 = load ptr, ptr %4, align 8, !tbaa !14
  %9 = getelementptr inbounds nuw %"struct.Luau::BytecodeBuilder::TableShape", ptr %8, i32 0, i32 1
  %10 = load i32, ptr %9, align 4, !tbaa !16
  %11 = icmp eq i32 %7, %10
  br i1 %11, label %12, label %24

12:                                               ; preds = %2
  %13 = getelementptr inbounds nuw %"struct.Luau::BytecodeBuilder::TableShape", ptr %5, i32 0, i32 0
  %14 = getelementptr inbounds [32 x i32], ptr %13, i64 0, i64 0
  %15 = load ptr, ptr %4, align 8, !tbaa !14
  %16 = getelementptr inbounds nuw %"struct.Luau::BytecodeBuilder::TableShape", ptr %15, i32 0, i32 0
  %17 = getelementptr inbounds [32 x i32], ptr %16, i64 0, i64 0
  %18 = getelementptr inbounds nuw %"struct.Luau::BytecodeBuilder::TableShape", ptr %5, i32 0, i32 1
  %19 = load i32, ptr %18, align 4, !tbaa !16
  %20 = zext i32 %19 to i64
  %21 = mul i64 %20, 4
  %22 = call i32 @memcmp(ptr noundef %14, ptr noundef %17, i64 noundef %21) #18
  %23 = icmp eq i32 %22, 0
  br label %24

24:                                               ; preds = %12, %2
  %25 = phi i1 [ false, %2 ], [ %23, %12 ]
  ret i1 %25
}