; Function Attrs: mustprogress nofree nounwind willreturn memory(argmem: read) uwtable
define dso_local noundef zeroext i1 @_ZNK4Luau15BytecodeBuilder10TableShapeeqERKS1_(ptr noundef nonnull readonly align 4 captures(none) dereferenceable(132) %0, ptr noundef nonnull readonly align 4 captures(none) dereferenceable(132) %1) local_unnamed_addr #2 align 2 {
  %3 = getelementptr inbounds nuw i8, ptr %0, i64 128
  %4 = load i32, ptr %3, align 4, !tbaa !12
  %5 = getelementptr inbounds nuw i8, ptr %1, i64 128
  %6 = load i32, ptr %5, align 4, !tbaa !12
  %7 = icmp eq i32 %4, %6
  br i1 %7, label %8, label %12

8:                                                ; preds = %2
  %9 = zext i32 %4 to i64
  %10 = shl nuw nsw i64 %9, 2
  %bcmp = tail call i32 @bcmp(ptr nonnull %0, ptr nonnull %1, i64 %10)
  %11 = icmp eq i32 %bcmp, 0
  br label %12

12:                                               ; preds = %8, %2
  %13 = phi i1 [ false, %2 ], [ %11, %8 ]
  ret i1 %13
}